target datalayout = "e-m:e-p270:32:32-p271:32:32-p272:64:64-i64:64-i128:128-f80:128-n8:16:32:64-S128"
target triple = "x86_64-pc-linux-gnu"

%"class.pbrt::ParameterDictionary" = type <{ %"class.pbrt::InlinedVector", ptr, i32, [4 x i8] }>
%"class.pbrt::InlinedVector" = type { %"class.pstd::pmr::polymorphic_allocator", ptr, %union.anon, i64, i64 }
%"class.pstd::pmr::polymorphic_allocator" = type { ptr }
%union.anon = type { [8 x ptr] }
%"class.std::__cxx11::basic_string" = type { %"struct.std::__cxx11::basic_string<char>::_Alloc_hider", i64, %union.anon.0 }
%"struct.std::__cxx11::basic_string<char>::_Alloc_hider" = type { ptr }
%union.anon.0 = type { i64, [8 x i8] }
%"class.pbrt::ParsedParameter" = type <{ %"class.std::__cxx11::basic_string", %"class.std::__cxx11::basic_string", %"struct.pbrt::FileLoc", %"class.pstd::vector", %"class.pstd::vector.2", %"class.pstd::vector.4", %"class.pstd::vector.6", i8, [7 x i8], ptr, i8, [7 x i8] }>
%"struct.pbrt::FileLoc" = type { %"class.std::basic_string_view", i32, i32 }
%"class.std::basic_string_view" = type { i64, ptr }
%"class.pstd::vector" = type { %"class.pstd::pmr::polymorphic_allocator.1", ptr, i64, i64 }
%"class.pstd::pmr::polymorphic_allocator.1" = type { ptr }
%"class.pstd::vector.2" = type { %"class.pstd::pmr::polymorphic_allocator.3", ptr, i64, i64 }
%"class.pstd::pmr::polymorphic_allocator.3" = type { ptr }
%"class.pstd::vector.4" = type { %"class.pstd::pmr::polymorphic_allocator.5", ptr, i64, i64 }
%"class.pstd::pmr::polymorphic_allocator.5" = type { ptr }
%"class.pstd::vector.6" = type { %"class.pstd::pmr::polymorphic_allocator.7", ptr, i64, i64 }
%"class.pstd::pmr::polymorphic_allocator.7" = type { ptr }

@_ZN4pbrt19ParameterTypeTraitsILNS_13ParameterTypeE7EE8typeNameE = weak_odr dso_local constant [7 x i8] c"normal\00", comdat, align 1

; Function Attrs: mustprogress nounwind uwtable
define available_externally noundef ptr @_ZNKSt7__cxx1112basic_stringIcSt11char_traitsIcESaIcEE7_M_dataEv(ptr noundef nonnull align 8 dereferenceable(32) %0) #3 align 2 {
  %2 = alloca ptr, align 8
  store ptr %0, ptr %2, align 8, !tbaa !47
  %3 = load ptr, ptr %2, align 8
  %4 = getelementptr inbounds nuw %"class.std::__cxx11::basic_string", ptr %3, i32 0, i32 0
  %5 = getelementptr inbounds nuw %"struct.std::__cxx11::basic_string<char>::_Alloc_hider", ptr %4, i32 0, i32 0
  %6 = load ptr, ptr %5, align 8, !tbaa !294
  ret ptr %6
}

; Function Attrs: mustprogress nounwind uwtable
define linkonce_odr dso_local void @_ZN4pstd3pmr21polymorphic_allocatorIPN4pbrt15ParsedParameterEE7destroyIS4_EEvPT_(ptr noundef nonnull align 8 dereferenceable(8) %0, ptr noundef %1) #3 comdat align 2 {
  %3 = alloca ptr, align 8
  %4 = alloca ptr, align 8
  store ptr %0, ptr %3, align 8, !tbaa !384
  store ptr %1, ptr %4, align 8, !tbaa !37
  ret void
}

; Function Attrs: mustprogress nounwind uwtable
define linkonce_odr dso_local noundef i32 @_ZNSt11char_traitsIcE7compareEPKcS2_m(ptr noundef %0, ptr noundef %1, i64 noundef %2) #3 comdat align 2 {
  %4 = alloca i32, align 4
  %5 = alloca ptr, align 8
  %6 = alloca ptr, align 8
  %7 = alloca i64, align 8
  store ptr %0, ptr %5, align 8, !tbaa !40
  store ptr %1, ptr %6, align 8, !tbaa !40
  store i64 %2, ptr %7, align 8, !tbaa !77
  %8 = load i64, ptr %7, align 8, !tbaa !77
  %9 = icmp eq i64 %8, 0
  br i1 %9, label %10, label %11

10:                                               ; preds = %3
  store i32 0, ptr %4, align 4
  br label %16

11:                                               ; preds = %3
  %12 = load ptr, ptr %5, align 8, !tbaa !40
  %13 = load ptr, ptr %6, align 8, !tbaa !40
  %14 = load i64, ptr %7, align 8, !tbaa !77
  %15 = call i32 @memcmp(ptr noundef %12, ptr noundef %13, i64 noundef %14) #10
  store i32 %15, ptr %4, align 4
  br label %16

16:                                               ; preds = %11, %10
  %17 = load i32, ptr %4, align 4
  ret i32 %17
}

; Function Attrs: mustprogress nounwind uwtable
define available_externally noundef ptr @_ZNKSt7__cxx1112basic_stringIcSt11char_traitsIcESaIcEE4dataEv(ptr noundef nonnull align 8 dereferenceable(32) %0) #3 align 2 {
  %2 = alloca ptr, align 8
  store ptr %0, ptr %2, align 8, !tbaa !47
  %3 = load ptr, ptr %2, align 8
  %4 = call noundef ptr @_ZNKSt7__cxx1112basic_stringIcSt11char_traitsIcESaIcEE7_M_dataEv(ptr noundef nonnull align 8 dereferenceable(32) %3)
  ret ptr %4
}

; Function Attrs: mustprogress nounwind uwtable
define available_externally noundef i64 @_ZNKSt7__cxx1112basic_stringIcSt11char_traitsIcESaIcEE4sizeEv(ptr noundef nonnull align 8 dereferenceable(32) %0) #3 align 2 {
  %2 = alloca ptr, align 8
  store ptr %0, ptr %2, align 8, !tbaa !47
  %3 = load ptr, ptr %2, align 8
  %4 = getelementptr inbounds nuw %"class.std::__cxx11::basic_string", ptr %3, i32 0, i32 1
  %5 = load i64, ptr %4, align 8, !tbaa !174
  ret i64 %5
}

; Function Attrs: mustprogress nounwind uwtable
define linkonce_odr dso_local noundef ptr @_ZN4pbrt13InlinedVectorIPNS_15ParsedParameterELi8EN4pstd3pmr21polymorphic_allocatorIS2_EEE5eraseEPKS2_(ptr noundef nonnull align 8 dereferenceable(96) %0, ptr noundef %1) #3 comdat align 2 {
  %3 = alloca ptr, align 8
  %4 = alloca ptr, align 8
  %5 = alloca ptr, align 8
  store ptr %0, ptr %3, align 8, !tbaa !15
  store ptr %1, ptr %4, align 8, !tbaa !37
  %6 = load ptr, ptr %3, align 8
  call void @llvm.lifetime.start.p0(i64 8, ptr %5) #10
  %7 = call noundef ptr @_ZN4pbrt13InlinedVectorIPNS_15ParsedParameterELi8EN4pstd3pmr21polymorphic_allocatorIS2_EEE5beginEv(ptr noundef nonnull align 8 dereferenceable(96) %6)
  %8 = load ptr, ptr %4, align 8, !tbaa !37
  %9 = call noundef ptr @_ZN4pbrt13InlinedVectorIPNS_15ParsedParameterELi8EN4pstd3pmr21polymorphic_allocatorIS2_EEE5beginEv(ptr noundef nonnull align 8 dereferenceable(96) %6)
  %10 = ptrtoint ptr %8 to i64
  %11 = ptrtoint ptr %9 to i64
  %12 = sub i64 %10, %11
  %13 = sdiv exact i64 %12, 8
  %14 = getelementptr inbounds ptr, ptr %7, i64 %13
  store ptr %14, ptr %5, align 8, !tbaa !37
  br label %15

15:                                               ; preds = %20, %2
  %16 = load ptr, ptr %5, align 8, !tbaa !37
  %17 = call noundef ptr @_ZN4pbrt13InlinedVectorIPNS_15ParsedParameterELi8EN4pstd3pmr21polymorphic_allocatorIS2_EEE3endEv(ptr noundef nonnull align 8 dereferenceable(96) %6)
  %18 = getelementptr inbounds ptr, ptr %17, i64 -1
  %19 = icmp ne ptr %16, %18
  br i1 %19, label %20, label %27

20:                                               ; preds = %15
  %21 = load ptr, ptr %5, align 8, !tbaa !37
  %22 = getelementptr inbounds ptr, ptr %21, i64 1
  %23 = load ptr, ptr %22, align 8, !tbaa !42
  %24 = load ptr, ptr %5, align 8, !tbaa !37
  store ptr %23, ptr %24, align 8, !tbaa !42
  %25 = load ptr, ptr %5, align 8, !tbaa !37
  %26 = getelementptr inbounds nuw ptr, ptr %25, i32 1
  store ptr %26, ptr %5, align 8, !tbaa !37
  br label %15, !llvm.loop !146

27:                                               ; preds = %15
  %28 = getelementptr inbounds nuw %"class.pbrt::InlinedVector", ptr %6, i32 0, i32 0
  %29 = load ptr, ptr %5, align 8, !tbaa !37
  call void @_ZN4pstd3pmr21polymorphic_allocatorIPN4pbrt15ParsedParameterEE7destroyIS4_EEvPT_(ptr noundef nonnull align 8 dereferenceable(8) %28, ptr noundef %29)
  %30 = getelementptr inbounds nuw %"class.pbrt::InlinedVector", ptr %6, i32 0, i32 4
  %31 = load i64, ptr %30, align 8, !tbaa !33
  %32 = add i64 %31, -1
  store i64 %32, ptr %30, align 8, !tbaa !33
  %33 = call noundef ptr @_ZN4pbrt13InlinedVectorIPNS_15ParsedParameterELi8EN4pstd3pmr21polymorphic_allocatorIS2_EEE5beginEv(ptr noundef nonnull align 8 dereferenceable(96) %6)
  %34 = load ptr, ptr %4, align 8, !tbaa !37
  %35 = call noundef ptr @_ZN4pbrt13InlinedVectorIPNS_15ParsedParameterELi8EN4pstd3pmr21polymorphic_allocatorIS2_EEE5beginEv(ptr noundef nonnull align 8 dereferenceable(96) %6)
  %36 = ptrtoint ptr %34 to i64
  %37 = ptrtoint ptr %35 to i64
  %38 = sub i64 %36, %37
  %39 = sdiv exact i64 %38, 8
  %40 = getelementptr inbounds ptr, ptr %33, i64 %39
  call void @llvm.lifetime.end.p0(i64 8, ptr %5) #10
  ret ptr %40
}

; Function Attrs: inlinehint mustprogress nounwind uwtable
define linkonce_odr dso_local noundef zeroext i1 @_ZSteqIcSt11char_traitsIcESaIcEEbRKNSt7__cxx1112basic_stringIT_T0_T1_EEPKS5_(ptr noundef nonnull align 8 dereferenceable(32) %0, ptr noundef %1) #6 comdat {
  %3 = alloca ptr, align 8
  %4 = alloca ptr, align 8
  store ptr %0, ptr %3, align 8, !tbaa !47
  store ptr %1, ptr %4, align 8, !tbaa !40
  %5 = load ptr, ptr %3, align 8, !tbaa !47
  %6 = load ptr, ptr %4, align 8, !tbaa !40
  %7 = call noundef i32 @_ZNKSt7__cxx1112basic_stringIcSt11char_traitsIcESaIcEE7compareEPKc(ptr noundef nonnull align 8 dereferenceable(32) %5, ptr noundef %6) #10
  %8 = icmp eq i32 %7, 0
  ret i1 %8
}

; Function Attrs: inlinehint mustprogress nounwind uwtable
define linkonce_odr dso_local noundef zeroext i1 @_ZSteqIcEN9__gnu_cxx11__enable_ifIXsr9__is_charIT_EE7__valueEbE6__typeERKNSt7__cxx1112basic_stringIS2_St11char_traitsIS2_ESaIS2_EEESC_(ptr noundef nonnull align 8 dereferenceable(32) %0, ptr noundef nonnull align 8 dereferenceable(32) %1) #6 comdat {
  %3 = alloca ptr, align 8
  %4 = alloca ptr, align 8
  store ptr %0, ptr %3, align 8, !tbaa !47
  store ptr %1, ptr %4, align 8, !tbaa !47
  %5 = load ptr, ptr %3, align 8, !tbaa !47
  %6 = call noundef i64 @_ZNKSt7__cxx1112basic_stringIcSt11char_traitsIcESaIcEE4sizeEv(ptr noundef nonnull align 8 dereferenceable(32) %5) #10
  %7 = load ptr, ptr %4, align 8, !tbaa !47
  %8 = call noundef i64 @_ZNKSt7__cxx1112basic_stringIcSt11char_traitsIcESaIcEE4sizeEv(ptr noundef nonnull align 8 dereferenceable(32) %7) #10
  %9 = icmp eq i64 %6, %8
  br i1 %9, label %10, label %20

10:                                               ; preds = %2
  %11 = load ptr, ptr %3, align 8, !tbaa !47
  %12 = call noundef ptr @_ZNKSt7__cxx1112basic_stringIcSt11char_traitsIcESaIcEE4dataEv(ptr noundef nonnull align 8 dereferenceable(32) %11) #10
  %13 = load ptr, ptr %4, align 8, !tbaa !47
  %14 = call noundef ptr @_ZNKSt7__cxx1112basic_stringIcSt11char_traitsIcESaIcEE4dataEv(ptr noundef nonnull align 8 dereferenceable(32) %13) #10
  %15 = load ptr, ptr %3, align 8, !tbaa !47
  %16 = call noundef i64 @_ZNKSt7__cxx1112basic_stringIcSt11char_traitsIcESaIcEE4sizeEv(ptr noundef nonnull align 8 dereferenceable(32) %15) #10
  %17 = call noundef i32 @_ZNSt11char_traitsIcE7compareEPKcS2_m(ptr noundef %12, ptr noundef %14, i64 noundef %16)
  %18 = icmp ne i32 %17, 0
  %19 = xor i1 %18, true
  br label %20

20:                                               ; preds = %10, %2
  %21 = phi i1 [ false, %2 ], [ %19, %10 ]
  ret i1 %21
}

; Function Attrs: mustprogress nounwind uwtable
define linkonce_odr dso_local noundef ptr @_ZN4pbrt13InlinedVectorIPNS_15ParsedParameterELi8EN4pstd3pmr21polymorphic_allocatorIS2_EEE3endEv(ptr noundef nonnull align 8 dereferenceable(96) %0) #3 comdat align 2 {
  %2 = alloca ptr, align 8
  store ptr %0, ptr %2, align 8, !tbaa !15
  %3 = load ptr, ptr %2, align 8
  %4 = call noundef ptr @_ZN4pbrt13InlinedVectorIPNS_15ParsedParameterELi8EN4pstd3pmr21polymorphic_allocatorIS2_EEE5beginEv(ptr noundef nonnull align 8 dereferenceable(96) %3)
  %5 = getelementptr inbounds nuw %"class.pbrt::InlinedVector", ptr %3, i32 0, i32 4
  %6 = load i64, ptr %5, align 8, !tbaa !33
  %7 = getelementptr inbounds nuw ptr, ptr %4, i64 %6
  ret ptr %7
}

; Function Attrs: mustprogress nounwind uwtable
define linkonce_odr dso_local noundef ptr @_ZN4pbrt13InlinedVectorIPNS_15ParsedParameterELi8EN4pstd3pmr21polymorphic_allocatorIS2_EEE5beginEv(ptr noundef nonnull align 8 dereferenceable(96) %0) #3 comdat align 2 {
  %2 = alloca ptr, align 8
  store ptr %0, ptr %2, align 8, !tbaa !15
  %3 = load ptr, ptr %2, align 8
  %4 = getelementptr inbounds nuw %"class.pbrt::InlinedVector", ptr %3, i32 0, i32 1
  %5 = load ptr, ptr %4, align 8, !tbaa !31
  %6 = icmp ne ptr %5, null
  br i1 %6, label %7, label %10

7:                                                ; preds = %1
  %8 = getelementptr inbounds nuw %"class.pbrt::InlinedVector", ptr %3, i32 0, i32 1
  %9 = load ptr, ptr %8, align 8, !tbaa !31
  br label %13

10:                                               ; preds = %1
  %11 = getelementptr inbounds nuw %"class.pbrt::InlinedVector", ptr %3, i32 0, i32 2
  %12 = getelementptr inbounds [8 x ptr], ptr %11, i64 0, i64 0
  br label %13

13:                                               ; preds = %10, %7
  %14 = phi ptr [ %9, %7 ], [ %12, %10 ]
  ret ptr %14
}

; Function Attrs: mustprogress uwtable
define dso_local void @_ZN4pbrt19ParameterDictionary6removeERKNSt7__cxx1112basic_stringIcSt11char_traitsIcESaIcEEEPKc(ptr noundef nonnull align 8 dereferenceable(108) %0, ptr noundef nonnull align 8 dereferenceable(32) %1, ptr noundef %2) #1 align 2 {
  %4 = alloca ptr, align 8
  %5 = alloca ptr, align 8
  %6 = alloca ptr, align 8
  %7 = alloca ptr, align 8
  %8 = alloca i32, align 4
  store ptr %0, ptr %4, align 8, !tbaa !13
  store ptr %1, ptr %5, align 8, !tbaa !47
  store ptr %2, ptr %6, align 8, !tbaa !40
  %9 = load ptr, ptr %4, align 8
  call void @llvm.lifetime.start.p0(i64 8, ptr %7) #10
  %10 = getelementptr inbounds nuw %"class.pbrt::ParameterDictionary", ptr %9, i32 0, i32 0
  %11 = call noundef ptr @_ZN4pbrt13InlinedVectorIPNS_15ParsedParameterELi8EN4pstd3pmr21polymorphic_allocatorIS2_EEE5beginEv(ptr noundef nonnull align 8 dereferenceable(96) %10)
  store ptr %11, ptr %7, align 8, !tbaa !37
  br label %12

12:                                               ; preds = %35, %3
  %13 = load ptr, ptr %7, align 8, !tbaa !37
  %14 = getelementptr inbounds nuw %"class.pbrt::ParameterDictionary", ptr %9, i32 0, i32 0
  %15 = call noundef ptr @_ZN4pbrt13InlinedVectorIPNS_15ParsedParameterELi8EN4pstd3pmr21polymorphic_allocatorIS2_EEE3endEv(ptr noundef nonnull align 8 dereferenceable(96) %14)
  %16 = icmp ne ptr %13, %15
  br i1 %16, label %18, label %17

17:                                               ; preds = %12
  store i32 2, ptr %8, align 4
  br label %38

18:                                               ; preds = %12
  %19 = load ptr, ptr %7, align 8, !tbaa !37
  %20 = load ptr, ptr %19, align 8, !tbaa !42
  %21 = getelementptr inbounds nuw %"class.pbrt::ParsedParameter", ptr %20, i32 0, i32 1
  %22 = load ptr, ptr %5, align 8, !tbaa !47
  %23 = call noundef zeroext i1 @_ZSteqIcEN9__gnu_cxx11__enable_ifIXsr9__is_charIT_EE7__valueEbE6__typeERKNSt7__cxx1112basic_stringIS2_St11char_traitsIS2_ESaIS2_EEESC_(ptr noundef nonnull align 8 dereferenceable(32) %21, ptr noundef nonnull align 8 dereferenceable(32) %22) #10
  br i1 %23, label %24, label %34

24:                                               ; preds = %18
  %25 = load ptr, ptr %7, align 8, !tbaa !37
  %26 = load ptr, ptr %25, align 8, !tbaa !42
  %27 = getelementptr inbounds nuw %"class.pbrt::ParsedParameter", ptr %26, i32 0, i32 0
  %28 = load ptr, ptr %6, align 8, !tbaa !40
  %29 = call noundef zeroext i1 @_ZSteqIcSt11char_traitsIcESaIcEEbRKNSt7__cxx1112basic_stringIT_T0_T1_EEPKS5_(ptr noundef nonnull align 8 dereferenceable(32) %27, ptr noundef %28)
  br i1 %29, label %30, label %34

30:                                               ; preds = %24
  %31 = getelementptr inbounds nuw %"class.pbrt::ParameterDictionary", ptr %9, i32 0, i32 0
  %32 = load ptr, ptr %7, align 8, !tbaa !37
  %33 = call noundef ptr @_ZN4pbrt13InlinedVectorIPNS_15ParsedParameterELi8EN4pstd3pmr21polymorphic_allocatorIS2_EEE5eraseEPKS2_(ptr noundef nonnull align 8 dereferenceable(96) %31, ptr noundef %32)
  store i32 1, ptr %8, align 4
  br label %38

34:                                               ; preds = %24, %18
  br label %35

35:                                               ; preds = %34
  %36 = load ptr, ptr %7, align 8, !tbaa !37
  %37 = getelementptr inbounds nuw ptr, ptr %36, i32 1
  store ptr %37, ptr %7, align 8, !tbaa !37
  br label %12, !llvm.loop !145

38:                                               ; preds = %30, %17
  call void @llvm.lifetime.end.p0(i64 8, ptr %7) #10
  %39 = load i32, ptr %8, align 4
  switch i32 %39, label %41 [
    i32 2, label %40
    i32 1, label %40
  ]

40:                                               ; preds = %38, %38
  ret void

41:                                               ; preds = %38
  unreachable
}

; Function Attrs: mustprogress uwtable
define dso_local void @_ZN4pbrt19ParameterDictionary14RemoveNormal3fERKNSt7__cxx1112basic_stringIcSt11char_traitsIcESaIcEEE(ptr noundef nonnull align 8 dereferenceable(108) %0, ptr noundef nonnull align 8 dereferenceable(32) %1) #1 align 2 {
  %3 = alloca ptr, align 8
  %4 = alloca ptr, align 8
  store ptr %0, ptr %3, align 8, !tbaa !13
  store ptr %1, ptr %4, align 8, !tbaa !47
  %5 = load ptr, ptr %3, align 8
  %6 = load ptr, ptr %4, align 8, !tbaa !47
  call void @_ZN4pbrt19ParameterDictionary6removeERKNSt7__cxx1112basic_stringIcSt11char_traitsIcESaIcEEEPKc(ptr noundef nonnull align 8 dereferenceable(108) %5, ptr noundef nonnull align 8 dereferenceable(32) %6, ptr noundef @_ZN4pbrt19ParameterTypeTraitsILNS_13ParameterTypeE7EE8typeNameE)
  ret void
}